; Function Attrs: nounwind uwtable
define hidden noundef i32 @Curl_headers_cleanup(ptr noundef %0) local_unnamed_addr #0 {
  %2 = getelementptr inbounds nuw i8, ptr %0, i64 4712
  %3 = tail call ptr @Curl_llist_head(ptr noundef nonnull %2) #5
  %.not7 = icmp eq ptr %3, null
  br i1 %.not7, label %._crit_edge, label %.lr.ph

.lr.ph:                                           ; preds = %1, %.lr.ph
  %.08 = phi ptr [ %5, %.lr.ph ], [ %3, %1 ]
  %4 = tail call ptr @Curl_node_elem(ptr noundef nonnull %.08) #5
  %5 = tail call ptr @Curl_node_next(ptr noundef nonnull %.08) #5
  %6 = load ptr, ptr @Curl_cfree, align 8, !tbaa !99
  tail call void %6(ptr noundef %4) #5
  %.not = icmp eq ptr %5, null
  br i1 %.not, label %._crit_edge, label %.lr.ph, !llvm.loop !116

._crit_edge:                                      ; preds = %.lr.ph, %1
  tail call void @Curl_llist_init(ptr noundef nonnull %2, ptr noundef null) #5
  %7 = getelementptr inbounds nuw i8, ptr %0, i64 4840
  store ptr null, ptr %7, align 8, !tbaa !95
  ret i32 0
}